target datalayout = "e-m:e-p270:32:32-p271:32:32-p272:64:64-i64:64-i128:128-f80:128-n8:16:32:64-S128"
target triple = "x86_64-pc-linux-gnu"

; Function Attrs: mustprogress uwtable
define noundef ptr @_ZN6icu_7716ICULocaleService16registerInstanceEPNS_7UObjectERKNS_6LocaleEiiR10UErrorCode(ptr noundef nonnull align 8 dereferenceable(408) %0, ptr noundef %1, ptr noundef nonnull align 8 dereferenceable(217) %2, i32 noundef %3, i32 noundef %4, ptr noundef nonnull align 4 dereferenceable(4) %5) unnamed_addr #1 align 2 personality ptr @__gxx_personality_v0 {
  %7 = alloca ptr, align 8
  %8 = alloca ptr, align 8
  %9 = alloca ptr, align 8
  %10 = alloca ptr, align 8
  %11 = alloca i32, align 4
  %12 = alloca i32, align 4
  %13 = alloca ptr, align 8
  %14 = alloca ptr, align 8
  %15 = alloca i1, align 1
  %16 = alloca ptr, align 8
  %17 = alloca i32, align 4
  %18 = alloca i32, align 4
  store ptr %0, ptr %8, align 8, !tbaa !23
  store ptr %1, ptr %9, align 8, !tbaa !32
  store ptr %2, ptr %10, align 8, !tbaa !30
  store i32 %3, ptr %11, align 4, !tbaa !14
  store i32 %4, ptr %12, align 4, !tbaa !14
  store ptr %5, ptr %13, align 8, !tbaa !22
  %19 = load ptr, ptr %8, align 8
  call void @llvm.lifetime.start.p0(i64 8, ptr %14) #11
  %20 = call noundef ptr @_ZN6icu_777UMemorynwEm(i64 noundef 160) #11
  %21 = icmp eq ptr %20, null
  store i1 false, ptr %15, align 1
  br i1 %21, label %28, label %22

22:                                               ; preds = %6
  store i1 true, ptr %15, align 1
  %23 = load ptr, ptr %9, align 8, !tbaa !32
  %24 = load ptr, ptr %10, align 8, !tbaa !30
  %25 = load i32, ptr %11, align 4, !tbaa !14
  %26 = load i32, ptr %12, align 4, !tbaa !14
  invoke void @_ZN6icu_7722SimpleLocaleKeyFactoryC1EPNS_7UObjectERKNS_6LocaleEii(ptr noundef nonnull align 8 dereferenceable(156) %20, ptr noundef %23, ptr noundef nonnull align 8 dereferenceable(217) %24, i32 noundef %25, i32 noundef %26)
          to label %27 unwind label %39

27:                                               ; preds = %22
  br label %28

28:                                               ; preds = %27, %6
  %29 = phi ptr [ %20, %27 ], [ null, %6 ]
  store ptr %29, ptr %14, align 8, !tbaa !39
  %30 = load ptr, ptr %14, align 8, !tbaa !39
  %31 = icmp ne ptr %30, null
  br i1 %31, label %32, label %46

32:                                               ; preds = %28
  %33 = load ptr, ptr %14, align 8, !tbaa !39
  %34 = load ptr, ptr %13, align 8, !tbaa !22
  %35 = load ptr, ptr %19, align 8, !tbaa !25
  %36 = getelementptr inbounds ptr, ptr %35, i64 9
  %37 = load ptr, ptr %36, align 8
  %38 = call noundef ptr %37(ptr noundef nonnull align 8 dereferenceable(120) %19, ptr noundef %33, ptr noundef nonnull align 4 dereferenceable(4) %34)
  store ptr %38, ptr %7, align 8
  store i32 1, ptr %18, align 4
  br label %54

39:                                               ; preds = %22
  %40 = landingpad { ptr, i32 }
          cleanup
  %41 = extractvalue { ptr, i32 } %40, 0
  store ptr %41, ptr %16, align 8
  %42 = extractvalue { ptr, i32 } %40, 1
  store i32 %42, ptr %17, align 4
  %43 = load i1, ptr %15, align 1
  br i1 %43, label %44, label %45

44:                                               ; preds = %39
  call void @_ZN6icu_777UMemorydlEPv(ptr noundef %20) #11
  br label %45

45:                                               ; preds = %44, %39
  call void @llvm.lifetime.end.p0(i64 8, ptr %14) #11
  br label %56

46:                                               ; preds = %28
  %47 = load ptr, ptr %9, align 8, !tbaa !32
  %48 = icmp eq ptr %47, null
  br i1 %48, label %53, label %49

49:                                               ; preds = %46
  %50 = load ptr, ptr %47, align 8, !tbaa !25
  %51 = getelementptr inbounds ptr, ptr %50, i64 1
  %52 = load ptr, ptr %51, align 8
  call void %52(ptr noundef nonnull align 8 dereferenceable(8) %47) #11
  br label %53

53:                                               ; preds = %49, %46
  store ptr null, ptr %7, align 8
  store i32 1, ptr %18, align 4
  br label %54

54:                                               ; preds = %53, %32
  call void @llvm.lifetime.end.p0(i64 8, ptr %14) #11
  %55 = load ptr, ptr %7, align 8
  ret ptr %55

56:                                               ; preds = %45
  %57 = load ptr, ptr %16, align 8
  %58 = load i32, ptr %17, align 4
  %59 = insertvalue { ptr, i32 } poison, ptr %57, 0
  %60 = insertvalue { ptr, i32 } %59, i32 %58, 1
  resume { ptr, i32 } %60
}