; Function Attrs: mustprogress uwtable
define noundef ptr @_ZN6icu_7716ICULocaleService16registerInstanceEPNS_7UObjectERKNS_6LocaleEiiR10UErrorCode(ptr noundef nonnull align 8 dereferenceable(408) %0, ptr noundef %1, ptr noundef nonnull align 8 dereferenceable(217) %2, i32 noundef %3, i32 noundef %4, ptr noundef nonnull align 4 dereferenceable(4) %5) unnamed_addr #1 align 2 personality ptr @__gxx_personality_v0 {
  %7 = tail call noundef ptr @_ZN6icu_777UMemorynwEm(i64 noundef 160) #15
  %8 = icmp eq ptr %7, null
  br i1 %8, label %17, label %9

9:                                                ; preds = %6
  invoke void @_ZN6icu_7722SimpleLocaleKeyFactoryC1EPNS_7UObjectERKNS_6LocaleEii(ptr noundef nonnull align 8 dereferenceable(156) %7, ptr noundef %1, ptr noundef nonnull align 8 dereferenceable(217) %2, i32 noundef %3, i32 noundef %4)
          to label %10 unwind label %15

10:                                               ; preds = %9
  %11 = load ptr, ptr %0, align 8, !tbaa !15
  %12 = getelementptr inbounds nuw i8, ptr %11, i64 72
  %13 = load ptr, ptr %12, align 8
  %14 = tail call noundef ptr %13(ptr noundef nonnull align 8 dereferenceable(120) %0, ptr noundef nonnull %7, ptr noundef nonnull align 4 dereferenceable(4) %5)
  br label %23

15:                                               ; preds = %9
  %16 = landingpad { ptr, i32 }
          cleanup
  tail call void @_ZN6icu_777UMemorydlEPv(ptr noundef nonnull %7) #15
  resume { ptr, i32 } %16

17:                                               ; preds = %6
  %18 = icmp eq ptr %1, null
  br i1 %18, label %23, label %19

19:                                               ; preds = %17
  %20 = load ptr, ptr %1, align 8, !tbaa !15
  %21 = getelementptr inbounds nuw i8, ptr %20, i64 8
  %22 = load ptr, ptr %21, align 8
  tail call void %22(ptr noundef nonnull align 8 dereferenceable(8) %1) #15
  br label %23

23:                                               ; preds = %17, %19, %10
  %.0 = phi ptr [ %14, %10 ], [ null, %19 ], [ null, %17 ]
  ret ptr %.0
}